target datalayout = "e-m:e-p270:32:32-p271:32:32-p272:64:64-i64:64-i128:128-f80:128-n8:16:32:64-S128"
target triple = "x86_64-pc-linux-gnu"

%struct.pointf_s = type { double, double }
%struct.GVJ_s = type { ptr, ptr, ptr, ptr, ptr, ptr, i32, ptr, ptr, ptr, ptr, i64, i64, ptr, i32, %struct.gvplugin_active_render_s, %struct.gvplugin_active_device_s, %struct.gvplugin_active_loadimage_t, ptr, %struct.pointf_s, i8, ptr, i32, ptr, i8, ptr, i32, i32, i32, %struct.point, %struct.point, %struct.point, %struct.point, %struct.point, i32, %struct.boxf, %struct.pointf_s, %struct.boxf, %struct.boxf, %struct.pointf_s, %struct.pointf_s, double, i32, %struct.pointf_s, %struct.boxf, %struct.pointf_s, %struct.pointf_s, i32, i32, %struct.box, %struct.box, %struct.pointf_s, %struct.pointf_s, %struct.pointf_s, i8, i8, i8, i8, i8, i8, %struct.pointf_s, %struct.pointf_s, ptr, ptr, ptr, ptr, ptr, ptr, i64, ptr }
%struct.gvplugin_active_render_s = type { ptr, i32, ptr, ptr }
%struct.gvplugin_active_device_s = type { ptr, i32, ptr, ptr }
%struct.gvplugin_active_loadimage_t = type { ptr, i32, ptr }
%struct.point = type { i32, i32 }
%struct.boxf = type { %struct.pointf_s, %struct.pointf_s }
%struct.box = type { %struct.point, %struct.point }
%struct.color_s = type { %union.anon, i32 }
%union.anon = type { [4 x double] }
%struct.obj_state_s = type { ptr, i32, %union.anon.0, i32, %struct.color_s, %struct.color_s, %struct.color_s, i32, double, i32, i32, double, ptr, double, double, double, ptr, ptr, ptr, ptr, ptr, ptr, ptr, ptr, ptr, ptr, ptr, ptr, ptr, ptr, ptr, ptr, ptr, i16, i32, i64, ptr, i64, ptr, ptr, i32, ptr, i32, ptr }
%union.anon.0 = type { ptr }

@.str.86 = private unnamed_addr constant [5 x i8] c"\22/>\0A\00", align 1
@.str.119 = private unnamed_addr constant [6 x i8] c"<path\00", align 1
@.str.120 = private unnamed_addr constant [6 x i8] c" id=\22\00", align 1
@.str.121 = private unnamed_addr constant [5 x i8] c"_p\22 \00", align 1
@.str.122 = private unnamed_addr constant [5 x i8] c" d=\22\00", align 1

; Function Attrs: nounwind uwtable
define internal void @svg_bzptarray(ptr noundef %0, ptr noundef %1, i64 noundef %2) #0 {
  %4 = alloca ptr, align 8
  %5 = alloca ptr, align 8
  %6 = alloca i64, align 8
  %7 = alloca i8, align 1
  %8 = alloca i64, align 8
  store ptr %0, ptr %4, align 8, !tbaa !3
  store ptr %1, ptr %5, align 8, !tbaa !114
  store i64 %2, ptr %6, align 8, !tbaa !115
  call void @llvm.lifetime.start.p0(i64 1, ptr %7) #9
  store i8 77, ptr %7, align 1, !tbaa !47
  call void @llvm.lifetime.start.p0(i64 8, ptr %8) #9
  store i64 0, ptr %8, align 8, !tbaa !115
  br label %9

9:                                                ; preds = %37, %3
  %10 = load i64, ptr %8, align 8, !tbaa !115
  %11 = load i64, ptr %6, align 8, !tbaa !115
  %12 = icmp ult i64 %10, %11
  br i1 %12, label %14, label %13

13:                                               ; preds = %9
  call void @llvm.lifetime.end.p0(i64 8, ptr %8) #9
  br label %40

14:                                               ; preds = %9
  %15 = load ptr, ptr %4, align 8, !tbaa !3
  %16 = call i64 @gvwrite(ptr noundef %15, ptr noundef %7, i64 noundef 1)
  %17 = load ptr, ptr %4, align 8, !tbaa !3
  %18 = load ptr, ptr %5, align 8, !tbaa !114
  %19 = load i64, ptr %8, align 8, !tbaa !115
  %20 = getelementptr inbounds nuw %struct.pointf_s, ptr %18, i64 %19
  %21 = getelementptr inbounds nuw %struct.pointf_s, ptr %20, i32 0, i32 0
  %22 = load double, ptr %21, align 8, !tbaa !77
  call void @gvprintdouble(ptr noundef %17, double noundef %22)
  %23 = load ptr, ptr %4, align 8, !tbaa !3
  %24 = call i32 @gvputc(ptr noundef %23, i32 noundef 44)
  %25 = load ptr, ptr %4, align 8, !tbaa !3
  %26 = load ptr, ptr %5, align 8, !tbaa !114
  %27 = load i64, ptr %8, align 8, !tbaa !115
  %28 = getelementptr inbounds nuw %struct.pointf_s, ptr %26, i64 %27
  %29 = getelementptr inbounds nuw %struct.pointf_s, ptr %28, i32 0, i32 1
  %30 = load double, ptr %29, align 8, !tbaa !76
  %31 = fneg double %30
  call void @gvprintdouble(ptr noundef %25, double noundef %31)
  %32 = load i64, ptr %8, align 8, !tbaa !115
  %33 = icmp eq i64 %32, 0
  br i1 %33, label %34, label %35

34:                                               ; preds = %14
  store i8 67, ptr %7, align 1, !tbaa !47
  br label %36

35:                                               ; preds = %14
  store i8 32, ptr %7, align 1, !tbaa !47
  br label %36

36:                                               ; preds = %35, %34
  br label %37

37:                                               ; preds = %36
  %38 = load i64, ptr %8, align 8, !tbaa !115
  %39 = add i64 %38, 1
  store i64 %39, ptr %8, align 8, !tbaa !115
  br label %9, !llvm.loop !127

40:                                               ; preds = %13
  call void @llvm.lifetime.end.p0(i64 1, ptr %7) #9
  ret void
}

; Function Attrs: nounwind uwtable
define internal void @svg_bezier(ptr noundef %0, ptr noundef %1, i64 noundef %2, i32 noundef %3) #0 {
  %5 = alloca ptr, align 8
  %6 = alloca ptr, align 8
  %7 = alloca i64, align 8
  %8 = alloca i32, align 4
  %9 = alloca i32, align 4
  %10 = alloca ptr, align 8
  store ptr %0, ptr %5, align 8, !tbaa !3
  store ptr %1, ptr %6, align 8, !tbaa !114
  store i64 %2, ptr %7, align 8, !tbaa !115
  store i32 %3, ptr %8, align 4, !tbaa !60
  call void @llvm.lifetime.start.p0(i64 4, ptr %9) #9
  store i32 0, ptr %9, align 4, !tbaa !60
  call void @llvm.lifetime.start.p0(i64 8, ptr %10) #9
  %11 = load ptr, ptr %5, align 8, !tbaa !3
  %12 = getelementptr inbounds nuw %struct.GVJ_s, ptr %11, i32 0, i32 4
  %13 = load ptr, ptr %12, align 8, !tbaa !50
  store ptr %13, ptr %10, align 8, !tbaa !51
  %14 = load i32, ptr %8, align 4, !tbaa !60
  %15 = icmp eq i32 %14, 2
  br i1 %15, label %16, label %21

16:                                               ; preds = %4
  %17 = load ptr, ptr %5, align 8, !tbaa !3
  %18 = load ptr, ptr %6, align 8, !tbaa !114
  %19 = load i64, ptr %7, align 8, !tbaa !115
  %20 = call i32 @svg_gradstyle(ptr noundef %17, ptr noundef %18, i64 noundef %19)
  store i32 %20, ptr %9, align 4, !tbaa !60
  br label %28

21:                                               ; preds = %4
  %22 = load i32, ptr %8, align 4, !tbaa !60
  %23 = icmp eq i32 %22, 3
  br i1 %23, label %24, label %27

24:                                               ; preds = %21
  %25 = load ptr, ptr %5, align 8, !tbaa !3
  %26 = call i32 @svg_rgradstyle(ptr noundef %25)
  store i32 %26, ptr %9, align 4, !tbaa !60
  br label %27

27:                                               ; preds = %24, %21
  br label %28

28:                                               ; preds = %27, %16
  %29 = load ptr, ptr %5, align 8, !tbaa !3
  %30 = call i32 @gvputs(ptr noundef %29, ptr noundef @.str.119)
  %31 = load ptr, ptr %10, align 8, !tbaa !51
  %32 = getelementptr inbounds nuw %struct.obj_state_s, ptr %31, i32 0, i32 33
  %33 = load i16, ptr %32, align 8
  %34 = lshr i16 %33, 9
  %35 = and i16 %34, 1
  %36 = zext i16 %35 to i32
  %37 = icmp ne i32 %36, 0
  br i1 %37, label %38, label %48

38:                                               ; preds = %28
  %39 = load ptr, ptr %5, align 8, !tbaa !3
  %40 = call i32 @gvputs(ptr noundef %39, ptr noundef @.str.120)
  %41 = load ptr, ptr %5, align 8, !tbaa !3
  %42 = load ptr, ptr %10, align 8, !tbaa !51
  %43 = getelementptr inbounds nuw %struct.obj_state_s, ptr %42, i32 0, i32 21
  %44 = load ptr, ptr %43, align 8, !tbaa !61
  %45 = call i32 @gvputs_xml(ptr noundef %41, ptr noundef %44)
  %46 = load ptr, ptr %5, align 8, !tbaa !3
  %47 = call i32 @gvputs(ptr noundef %46, ptr noundef @.str.121)
  br label %48

48:                                               ; preds = %38, %28
  %49 = load ptr, ptr %5, align 8, !tbaa !3
  %50 = load i32, ptr %8, align 4, !tbaa !60
  %51 = load i32, ptr %9, align 4, !tbaa !60
  call void @svg_grstyle(ptr noundef %49, i32 noundef %50, i32 noundef %51)
  %52 = load ptr, ptr %5, align 8, !tbaa !3
  %53 = call i32 @gvputs(ptr noundef %52, ptr noundef @.str.122)
  %54 = load ptr, ptr %5, align 8, !tbaa !3
  %55 = load ptr, ptr %6, align 8, !tbaa !114
  %56 = load i64, ptr %7, align 8, !tbaa !115
  call void @svg_bzptarray(ptr noundef %54, ptr noundef %55, i64 noundef %56)
  %57 = load ptr, ptr %5, align 8, !tbaa !3
  %58 = call i32 @gvputs(ptr noundef %57, ptr noundef @.str.86)
  call void @llvm.lifetime.end.p0(i64 8, ptr %10) #9
  call void @llvm.lifetime.end.p0(i64 4, ptr %9) #9
  ret void
}