; Function Attrs: nounwind uwtable
define internal void @svg_bezier(ptr noundef %0, ptr noundef %1, i64 noundef %2, i32 noundef %3) #0 {
  %5 = alloca i8, align 1
  %6 = getelementptr inbounds nuw i8, ptr %0, i64 32
  %7 = load ptr, ptr %6, align 8, !tbaa !50
  switch i32 %3, label %12 [
    i32 2, label %8
    i32 3, label %10
  ]

8:                                                ; preds = %4
  %9 = tail call fastcc i32 @svg_gradstyle(ptr noundef nonnull %0, ptr noundef %1, i64 noundef %2)
  br label %12

10:                                               ; preds = %4
  %11 = tail call fastcc i32 @svg_rgradstyle(ptr noundef nonnull %0)
  br label %12

12:                                               ; preds = %4, %10, %8
  %.0 = phi i32 [ %9, %8 ], [ %11, %10 ], [ 0, %4 ]
  %13 = tail call i32 @gvputs(ptr noundef nonnull %0, ptr noundef nonnull @.str.119) #11
  %14 = getelementptr inbounds nuw i8, ptr %7, i64 352
  %15 = load i16, ptr %14, align 8
  %16 = and i16 %15, 512
  %.not = icmp eq i16 %16, 0
  br i1 %.not, label %23, label %17

17:                                               ; preds = %12
  %18 = tail call i32 @gvputs(ptr noundef nonnull %0, ptr noundef nonnull @.str.120) #11
  %19 = getelementptr inbounds nuw i8, ptr %7, i64 256
  %20 = load ptr, ptr %19, align 8, !tbaa !59
  %21 = tail call i32 @gvputs_xml(ptr noundef nonnull %0, ptr noundef %20) #11
  %22 = tail call i32 @gvputs(ptr noundef nonnull %0, ptr noundef nonnull @.str.121) #11
  br label %23

23:                                               ; preds = %17, %12
  tail call fastcc void @svg_grstyle(ptr noundef nonnull %0, i32 noundef %3, i32 noundef %.0)
  %24 = tail call i32 @gvputs(ptr noundef nonnull %0, ptr noundef nonnull @.str.122) #11
  call void @llvm.lifetime.start.p0(i64 1, ptr nonnull %5) #11
  store i8 77, ptr %5, align 1, !tbaa !46
  %.not.i = icmp eq i64 %2, 0
  br i1 %.not.i, label %svg_bzptarray.exit, label %.lr.ph.i

.lr.ph.i:                                         ; preds = %23, %.lr.ph.i
  %.011.i = phi i64 [ %33, %.lr.ph.i ], [ 0, %23 ]
  %25 = call i64 @gvwrite(ptr noundef nonnull %0, ptr noundef nonnull %5, i64 noundef 1) #11
  %26 = getelementptr inbounds nuw %struct.pointf_s, ptr %1, i64 %.011.i
  %27 = load double, ptr %26, align 8, !tbaa !102
  call void @gvprintdouble(ptr noundef nonnull %0, double noundef %27) #11
  %28 = call i32 @gvputc(ptr noundef nonnull %0, i32 noundef 44) #11
  %29 = getelementptr inbounds nuw i8, ptr %26, i64 8
  %30 = load double, ptr %29, align 8, !tbaa !103
  %31 = fneg double %30
  call void @gvprintdouble(ptr noundef nonnull %0, double noundef %31) #11
  %32 = icmp eq i64 %.011.i, 0
  %..i = select i1 %32, i8 67, i8 32
  store i8 %..i, ptr %5, align 1, !tbaa !46
  %33 = add nuw i64 %.011.i, 1
  %exitcond.not.i = icmp eq i64 %33, %2
  br i1 %exitcond.not.i, label %svg_bzptarray.exit, label %.lr.ph.i, !llvm.loop !106

svg_bzptarray.exit:                               ; preds = %.lr.ph.i, %23
  call void @llvm.lifetime.end.p0(i64 1, ptr nonnull %5) #11
  %34 = call i32 @gvputs(ptr noundef nonnull %0, ptr noundef nonnull @.str.86) #11
  ret void
}